Certificate:
    Data:
        Version: 3 (0x2)
        Serial Number: 6 (0x6)
    Signature Algorithm: sha256WithRSAEncryption
        Issuer: CN=k8s-20161122-master1@172.16.254.4
        Validity
            Not Before: Nov 23 19:27:51 2016 GMT
            Not After : Nov 21 19:27:51 2026 GMT
        Subject: CN=k8s-20161122-node2
        Subject Public Key Info:
            Public Key Algorithm: rsaEncryption
                Public-Key: (2048 bit)
                Modulus:
                    00:db:47:1f:f5:8c:37:75:7c:52:e7:55:e9:3e:19:
                    19:96:98:ff:85:1e:2b:a2:77:f3:0f:42:62:0d:14:
                    33:9f:bc:89:f1:db:1f:bd:7a:ad:c0:08:2d:d2:8c:
                    52:a5:88:1b:b1:a5:cb:17:6c:04:db:d3:c9:af:92:
                    82:23:96:15:02:2c:d8:b1:c8:29:1a:0e:20:9d:9a:
                    ab:60:89:0f:32:35:77:14:2c:9c:fa:b4:91:57:eb:
                    b0:ed:8f:75:a0:db:ee:8b:7a:a3:44:8c:fb:80:49:
                    13:ef:7a:3d:76:64:97:b4:e9:9e:e7:81:d2:35:a5:
                    12:60:75:50:46:d4:13:13:0b:c4:0b:d0:55:57:04:
                    47:c5:4b:eb:bd:01:a9:e8:e2:a1:7e:2c:e1:cf:5c:
                    a8:9c:f1:a0:85:d6:fa:5e:1f:b5:20:6e:86:4f:4a:
                    c4:79:69:fa:e3:25:b1:b8:19:65:e6:12:76:b2:9f:
                    34:76:48:c3:b5:4f:f8:0e:48:01:7d:40:13:7f:1a:
                    d8:c5:bf:95:bd:a6:92:3e:a5:0a:c2:ca:72:16:bc:
                    a3:eb:38:e9:b7:18:c2:a4:2b:1f:de:4f:0d:9b:1c:
                    92:e2:dc:d2:84:46:21:29:e2:b7:6c:04:ad:1c:ec:
                    4b:18:1b:ec:78:32:70:b3:d4:b9:46:19:ac:47:09:
                    b0:9f
                Exponent: 65537 (0x10001)
        X509v3 extensions:
            X509v3 Basic Constraints: 
                CA:FALSE
            X509v3 Subject Key Identifier: 
                99:D9:32:45:9F:8F:C6:C4:85:70:75:F5:09:D5:94:5C:4E:58:9A:51
            X509v3 Authority Key Identifier: 
                keyid:AF:B5:FD:82:C1:D3:A6:39:89:FC:AD:8F:71:C2:F6:B2:67:2A:3D:8C
                DirName:/CN=k8s-20161122-master1@172.16.254.4
                serial:8C:A8:09:01:80:11:68:57

            X509v3 Extended Key Usage: 
                TLS Web Server Authentication
            X509v3 Key Usage: 
                Digital Signature, Key Encipherment
    Signature Algorithm: sha256WithRSAEncryption
         34:7b:ae:d5:1d:a9:bb:33:d2:06:95:8b:9f:b1:48:53:e7:7f:
         49:a8:5d:29:15:d9:4c:90:38:fd:a5:1f:ff:73:61:39:24:63:
         f4:94:b1:3b:f4:36:70:44:81:59:3e:4e:8d:fb:35:3f:43:97:
         1a:bf:f3:8d:2a:7e:cb:ee:1c:1b:67:76:37:c8:96:f0:f8:44:
         7a:ce:d9:a2:01:ce:2e:fb:61:14:21:bb:bf:68:a5:46:1f:ab:
         1b:c2:06:eb:68:54:4f:5f:f2:ae:86:2e:80:91:8f:fa:eb:10:
         80:2f:ee:68:9f:83:2a:f3:1f:7d:25:1b:60:0b:ca:2f:0d:a6:
         11:be:58:e3:db:9c:6e:b9:9d:9f:9f:84:2b:ab:b9:24:f9:a2:
         1a:94:9f:2d:02:ed:23:d1:ca:d3:22:6b:5c:dd:0d:5c:41:7d:
         3b:bd:f3:bd:80:f4:cf:0f:38:c0:fd:3c:33:f8:3f:62:85:18:
         ed:75:cb:4b:d3:1c:2a:4f:8f:32:81:b2:ae:6e:29:f0:05:47:
         25:dd:a6:08:b9:b7:76:f6:f1:cb:e0:9a:6c:a2:da:58:e1:d2:
         ed:b7:a0:bd:b3:4f:9f:84:18:cb:86:e0:27:d1:4d:03:88:15:
         c3:eb:55:50:c0:9f:43:35:9c:6c:8d:1e:76:dd:1b:00:57:94:
         dd:43:8c:c9
-----BEGIN CERTIFICATE-----
MIIDcjCCAlqgAwIBAgIBBjANBgkqhkiG9w0BAQsFADAsMSowKAYDVQQDFCFrOHMt
MjAxNjExMjItbWFzdGVyMUAxNzIuMTYuMjU0LjQwHhcNMTYxMTIzMTkyNzUxWhcN
MjYxMTIxMTkyNzUxWjAdMRswGQYDVQQDExJrOHMtMjAxNjExMjItbm9kZTIwggEi
MA0GCSqGSIb3DQEBAQUAA4IBDwAwggEKAoIBAQDbRx/1jDd1fFLnVek+GRmWmP+F
Hiuid/MPQmINFDOfvInx2x+9eq3ACC3SjFKliBuxpcsXbATb08mvkoIjlhUCLNix
yCkaDiCdmqtgiQ8yNXcULJz6tJFX67Dtj3Wg2+6LeqNEjPuASRPvej12ZJe06Z7n
gdI1pRJgdVBG1BMTC8QL0FVXBEfFS+u9Aano4qF+LOHPXKic8aCF1vpeH7UgboZP
SsR5afrjJbG4GWXmEnaynzR2SMO1T/gOSAF9QBN/GtjFv5W9ppI+pQrCynIWvKPr
OOm3GMKkKx/eTw2bHJLi3NKERiEp4rdsBK0c7EsYG+x4MnCz1LlGGaxHCbCfAgMB
AAGjga0wgaowCQYDVR0TBAIwADAdBgNVHQ4EFgQUmdkyRZ+PxsSFcHX1CdWUXE5Y
mlEwXAYDVR0jBFUwU4AUr7X9gsHTpjmJ/K2PccL2smcqPYyhMKQuMCwxKjAoBgNV
BAMUIWs4cy0yMDE2MTEyMi1tYXN0ZXIxQDE3Mi4xNi4yNTQuNIIJAIyoCQGAEWhX
MBMGA1UdJQQMMAoGCCsGAQUFBwMBMAsGA1UdDwQEAwIFoDANBgkqhkiG9w0BAQsF
AAOCAQEANHuu1R2puzPSBpWLn7FIU+d/SahdKRXZTJA4/aUf/3NhOSRj9JSxO/Q2
cESBWT5Ojfs1P0OXGr/zjSp+y+4cG2d2N8iW8PhEes7ZogHOLvthFCG7v2ilRh+r
G8IG62hUT1/yroYugJGP+usQgC/uaJ+DKvMffSUbYAvKLw2mEb5Y49ucbrmdn5+E
K6u5JPmiGpSfLQLtI9HK0yJrXN0NXEF9O73zvYD0zw84wP08M/g/YoUY7XXLS9Mc
Kk+PMoGyrm4p8AVHJd2mCLm3dvbxy+CabKLaWOHS7begvbNPn4QYy4bgJ9FNA4gV
w+tVUMCfQzWcbI0edt0bAFeU3UOMyQ==
-----END CERTIFICATE-----
-----BEGIN CERTIFICATE-----
MIIDdzCCAl+gAwIBAgIJAIyoCQGAEWhXMA0GCSqGSIb3DQEBCwUAMCwxKjAoBgNV
BAMUIWs4cy0yMDE2MTEyMi1tYXN0ZXIxQDE3Mi4xNi4yNTQuNDAeFw0xNjExMjMx
OTI1MDNaFw0yNjExMjExOTI1MDNaMCwxKjAoBgNVBAMUIWs4cy0yMDE2MTEyMi1t
YXN0ZXIxQDE3Mi4xNi4yNTQuNDCCASIwDQYJKoZIhvcNAQEBBQADggEPADCCAQoC
ggEBALknDY2TETCPzgFEtZGyUxhAYNAo0dZpOGAmp9mhz2WzIZ3jmdyV0eMpnLNC
pZceLxad+RiI82wwEupJV9F6JGDCqfN1+AT5lf/T8+kp//gNG7Kd75HvAtcjfBiQ
zYOLITDLzNoxJQwR5eeZSZb0stS02oJSat1sB8AhnB6omn6QdjvwCNunxS+1F/Ef
jXy3aS7u2aDH/0/cEaSxvST8TTFEgex68KRmlm+iV0wf49L/dqfJyF6E5hlQS5J0
yQnL3WfoJb9lITIGgbH0Oj0MmGycKmuDpFqeh1OqYDY+Uez3WP9X2lHkWxKNw35z
OAZZ/QX89vFeOwN8oFj72zmLZssCAwEAAaOBmzCBmDAdBgNVHQ4EFgQUr7X9gsHT
pjmJ/K2PccL2smcqPYwwXAYDVR0jBFUwU4AUr7X9gsHTpjmJ/K2PccL2smcqPYyh
MKQuMCwxKjAoBgNVBAMUIWs4cy0yMDE2MTEyMi1tYXN0ZXIxQDE3Mi4xNi4yNTQu
NIIJAIyoCQGAEWhXMAwGA1UdEwQFMAMBAf8wCwYDVR0PBAQDAgEGMA0GCSqGSIb3
DQEBCwUAA4IBAQAFHTXaJmMSRvDhV02I1IzXH97KyCBIBgsT9fAH/aeONa2Qdrm+
vcW9dQnU8cD03Bexu7Zj3aYMBUVyUWsjg9tiwyyYycSJkTDDxq9TgkxOYDt1M5VJ
gmt+Z4NOoyUUjyyUGURiGMp4+Kk3KfcCYOyWB/kO21k2sHkOae7otxU/JQTMU+4W
i/i2uGY96vs63O+/CXCS/IJnOmS31nt6JY+K/VLR2KAGYC9CX+hjFF6d+0Vink+r
sRyLigrs6gT6ZfvDBfZiz233vk2LI2KCQu3Mxr3ylcfgUY/hTb1G5Y7hWxpxKx5l
wkheWvdn/Qz3zr+8pV8q6hpCzbQXqb6WVlD4
-----END CERTIFICATE-----
